target datalayout = "e-m:e-p270:32:32-p271:32:32-p272:64:64-i64:64-i128:128-f80:128-n8:16:32:64-S128"
target triple = "x86_64-pc-linux-gnu"

%class.XServiceabilityCounters = type { [8 x i8], %class.XGenerationCounters, %class.HSpaceCounters, %class.CollectorCounters }
%class.XGenerationCounters = type { %class.GenerationCounters }
%class.GenerationCounters = type { ptr, ptr, ptr, ptr }
%class.HSpaceCounters = type { ptr, ptr, ptr }
%class.CollectorCounters = type { ptr, ptr, ptr, ptr, ptr }

@.str = private unnamed_addr constant [4 x i8] c"old\00", align 1
@.str.4 = private unnamed_addr constant [6 x i8] c"space\00", align 1
@.str.5 = private unnamed_addr constant [26 x i8] c"Z concurrent cycle pauses\00", align 1
@_ZTV19XGenerationCounters = linkonce_odr hidden unnamed_addr constant { [3 x ptr] } { [3 x ptr] [ptr null, ptr null, ptr @_ZN18GenerationCounters10update_allEv] }, comdat, align 8

; Function Attrs: mustprogress nounwind uwtable
define linkonce_odr hidden noundef ptr @_ZNK18GenerationCounters10name_spaceEv(ptr noundef nonnull align 8 dereferenceable(32) %0) #1 comdat align 2 {
  %2 = alloca ptr, align 8
  store ptr %0, ptr %2, align 8
  %3 = load ptr, ptr %2, align 8
  %4 = getelementptr inbounds %class.GenerationCounters, ptr %3, i32 0, i32 3
  %5 = load ptr, ptr %4, align 8
  ret ptr %5
}

; Function Attrs: mustprogress nounwind uwtable
define linkonce_odr hidden void @_ZN19XGenerationCountersC2EPKciimmm(ptr noundef nonnull align 8 dereferenceable(32) %0, ptr noundef %1, i32 noundef %2, i32 noundef %3, i64 noundef %4, i64 noundef %5, i64 noundef %6) unnamed_addr #1 comdat align 2 {
  %8 = alloca ptr, align 8
  %9 = alloca ptr, align 8
  %10 = alloca i32, align 4
  %11 = alloca i32, align 4
  %12 = alloca i64, align 8
  %13 = alloca i64, align 8
  %14 = alloca i64, align 8
  store ptr %0, ptr %8, align 8
  store ptr %1, ptr %9, align 8
  store i32 %2, ptr %10, align 4
  store i32 %3, ptr %11, align 4
  store i64 %4, ptr %12, align 8
  store i64 %5, ptr %13, align 8
  store i64 %6, ptr %14, align 8
  %15 = load ptr, ptr %8, align 8
  %16 = load ptr, ptr %9, align 8
  %17 = load i32, ptr %10, align 4
  %18 = load i32, ptr %11, align 4
  %19 = load i64, ptr %12, align 8
  %20 = load i64, ptr %13, align 8
  %21 = load i64, ptr %14, align 8
  call void @_ZN18GenerationCountersC2EPKciimmm(ptr noundef nonnull align 8 dereferenceable(32) %15, ptr noundef %16, i32 noundef %17, i32 noundef %18, i64 noundef %19, i64 noundef %20, i64 noundef %21)
  store ptr getelementptr inbounds inrange(-16, 8) ({ [3 x ptr] }, ptr @_ZTV19XGenerationCounters, i32 0, i32 0, i32 2), ptr %15, align 8
  ret void
}

; Function Attrs: mustprogress nounwind uwtable
define hidden void @_ZN23XServiceabilityCountersC2Emm(ptr noundef nonnull align 8 dereferenceable(104) %0, i64 noundef %1, i64 noundef %2) unnamed_addr #1 align 2 {
  %4 = alloca ptr, align 8
  %5 = alloca i64, align 8
  %6 = alloca i64, align 8
  store ptr %0, ptr %4, align 8
  store i64 %1, ptr %5, align 8
  store i64 %2, ptr %6, align 8
  %7 = load ptr, ptr %4, align 8
  %8 = getelementptr inbounds %class.XServiceabilityCounters, ptr %7, i32 0, i32 1
  %9 = load i64, ptr %5, align 8
  %10 = load i64, ptr %6, align 8
  %11 = load i64, ptr %5, align 8
  call void @_ZN19XGenerationCountersC2EPKciimmm(ptr noundef nonnull align 8 dereferenceable(32) %8, ptr noundef @.str, i32 noundef 1, i32 noundef 1, i64 noundef %9, i64 noundef %10, i64 noundef %11)
  %12 = getelementptr inbounds %class.XServiceabilityCounters, ptr %7, i32 0, i32 2
  %13 = getelementptr inbounds %class.XServiceabilityCounters, ptr %7, i32 0, i32 1
  %14 = call noundef ptr @_ZNK18GenerationCounters10name_spaceEv(ptr noundef nonnull align 8 dereferenceable(32) %13)
  %15 = load i64, ptr %6, align 8
  %16 = load i64, ptr %5, align 8
  call void @_ZN14HSpaceCountersC1EPKcS1_imm(ptr noundef nonnull align 8 dereferenceable(24) %12, ptr noundef %14, ptr noundef @.str.4, i32 noundef 0, i64 noundef %15, i64 noundef %16)
  %17 = getelementptr inbounds %class.XServiceabilityCounters, ptr %7, i32 0, i32 3
  call void @_ZN17CollectorCountersC1EPKci(ptr noundef nonnull align 8 dereferenceable(40) %17, ptr noundef @.str.5, i32 noundef 2)
  ret void
}