; Function Attrs: mustprogress nounwind uwtable
define hidden void @_ZN23XServiceabilityCountersC2Emm(ptr noundef nonnull align 8 dereferenceable(104) %0, i64 noundef %1, i64 noundef %2) unnamed_addr #0 align 2 {
  %4 = getelementptr inbounds i8, ptr %0, i64 8
  tail call void @_ZN18GenerationCountersC2EPKciimmm(ptr noundef nonnull align 8 dereferenceable(32) %4, ptr noundef nonnull @.str, i32 noundef 1, i32 noundef 1, i64 noundef %1, i64 noundef %2, i64 noundef %1) #8
  store ptr getelementptr inbounds inrange(-16, 8) (i8, ptr @_ZTV19XGenerationCounters, i64 16), ptr %4, align 8
  %5 = getelementptr inbounds i8, ptr %0, i64 40
  %6 = getelementptr inbounds i8, ptr %0, i64 32
  %7 = load ptr, ptr %6, align 8
  tail call void @_ZN14HSpaceCountersC1EPKcS1_imm(ptr noundef nonnull align 8 dereferenceable(24) %5, ptr noundef %7, ptr noundef nonnull @.str.4, i32 noundef 0, i64 noundef %2, i64 noundef %1) #8
  %8 = getelementptr inbounds i8, ptr %0, i64 64
  tail call void @_ZN17CollectorCountersC1EPKci(ptr noundef nonnull align 8 dereferenceable(40) %8, ptr noundef nonnull @.str.5, i32 noundef 2) #8
  ret void
}